#include <math.h>
#include <stdio.h>
#include <stdlib.h>
#include <string.h>

int main(){
	char s[100],a[100],b[100];
	gets(s);
	scanf("%s\n%s",a,b);
	int n,m,p=0,q,i,j;
	n=strlen(s);
	m=strlen(a);

	int begin = 0;


	for(i=0;i<n;i++)
	{
		if(a[0]==s[i] && ( i == 0 || s[i-1] == ' '))
		{
			q=i;
			p = 0 ;
			for(j=1;j<m;j++){
				if(a[j]!=s[i+j]){
					break;
				}else{
					p++;
				}
			}
			if(p==m-1 && ( i+m == n || s[i+m]== ' ') )
			{
				printf("%s",b);
				i += m - 1 ;
			}
			else
			{
				printf("%c",s[i]);
			}
		        
		}else
			printf("%c",s[i]);
	}
	
	return 0;
}