; ModuleID = '19/993.c'
source_filename = "19/993.c"
target datalayout = "e-m:e-p270:32:32-p271:32:32-p272:64:64-i64:64-f80:128-n8:16:32:64-S128"
target triple = "x86_64-pc-linux-gnu"

@.str = private unnamed_addr constant [6 x i8] c"%s\0A%s\00", align 1
@.str.1 = private unnamed_addr constant [3 x i8] c"%s\00", align 1
@.str.2 = private unnamed_addr constant [3 x i8] c"%c\00", align 1

; Function Attrs: noinline nounwind uwtable
define dso_local i32 @main() #0 {
  %1 = alloca i32, align 4
  %2 = alloca [100 x i8], align 16
  %3 = alloca [100 x i8], align 16
  %4 = alloca [100 x i8], align 16
  %5 = alloca i32, align 4
  %6 = alloca i32, align 4
  %7 = alloca i32, align 4
  %8 = alloca i32, align 4
  %9 = alloca i32, align 4
  %10 = alloca i32, align 4
  %11 = alloca i32, align 4
  store i32 0, i32* %1, align 4
  %12 = getelementptr inbounds [100 x i8], [100 x i8]* %2, i64 0, i64 0
  %13 = call i32 (i8*, ...) bitcast (i32 (...)* @gets to i32 (i8*, ...)*)(i8* %12)
  %14 = getelementptr inbounds [100 x i8], [100 x i8]* %3, i64 0, i64 0
  %15 = getelementptr inbounds [100 x i8], [100 x i8]* %4, i64 0, i64 0
  %16 = call i32 (i8*, ...) @__isoc99_scanf(i8* getelementptr inbounds ([6 x i8], [6 x i8]* @.str, i64 0, i64 0), i8* %14, i8* %15)
  store i32 0, i32* %7, align 4
  %17 = getelementptr inbounds [100 x i8], [100 x i8]* %2, i64 0, i64 0
  %18 = call i64 @strlen(i8* %17) #3
  %19 = trunc i64 %18 to i32
  store i32 %19, i32* %5, align 4
  %20 = getelementptr inbounds [100 x i8], [100 x i8]* %3, i64 0, i64 0
  %21 = call i64 @strlen(i8* %20) #3
  %22 = trunc i64 %21 to i32
  store i32 %22, i32* %6, align 4
  store i32 0, i32* %11, align 4
  store i32 0, i32* %9, align 4
  br label %23

23:                                               ; preds = %119, %0
  %24 = load i32, i32* %9, align 4
  %25 = load i32, i32* %5, align 4
  %26 = icmp slt i32 %24, %25
  br i1 %26, label %27, label %122

27:                                               ; preds = %23
  %28 = getelementptr inbounds [100 x i8], [100 x i8]* %3, i64 0, i64 0
  %29 = load i8, i8* %28, align 16
  %30 = sext i8 %29 to i32
  %31 = load i32, i32* %9, align 4
  %32 = sext i32 %31 to i64
  %33 = getelementptr inbounds [100 x i8], [100 x i8]* %2, i64 0, i64 %32
  %34 = load i8, i8* %33, align 1
  %35 = sext i8 %34 to i32
  %36 = icmp eq i32 %30, %35
  br i1 %36, label %37, label %111

37:                                               ; preds = %27
  %38 = load i32, i32* %9, align 4
  %39 = icmp eq i32 %38, 0
  br i1 %39, label %48, label %40

40:                                               ; preds = %37
  %41 = load i32, i32* %9, align 4
  %42 = sub nsw i32 %41, 1
  %43 = sext i32 %42 to i64
  %44 = getelementptr inbounds [100 x i8], [100 x i8]* %2, i64 0, i64 %43
  %45 = load i8, i8* %44, align 1
  %46 = sext i8 %45 to i32
  %47 = icmp eq i32 %46, 32
  br i1 %47, label %48, label %111

48:                                               ; preds = %40, %37
  %49 = load i32, i32* %9, align 4
  store i32 %49, i32* %8, align 4
  store i32 0, i32* %7, align 4
  store i32 1, i32* %10, align 4
  br label %50

50:                                               ; preds = %73, %48
  %51 = load i32, i32* %10, align 4
  %52 = load i32, i32* %6, align 4
  %53 = icmp slt i32 %51, %52
  br i1 %53, label %54, label %76

54:                                               ; preds = %50
  %55 = load i32, i32* %10, align 4
  %56 = sext i32 %55 to i64
  %57 = getelementptr inbounds [100 x i8], [100 x i8]* %3, i64 0, i64 %56
  %58 = load i8, i8* %57, align 1
  %59 = sext i8 %58 to i32
  %60 = load i32, i32* %9, align 4
  %61 = load i32, i32* %10, align 4
  %62 = add nsw i32 %60, %61
  %63 = sext i32 %62 to i64
  %64 = getelementptr inbounds [100 x i8], [100 x i8]* %2, i64 0, i64 %63
  %65 = load i8, i8* %64, align 1
  %66 = sext i8 %65 to i32
  %67 = icmp ne i32 %59, %66
  br i1 %67, label %68, label %69

68:                                               ; preds = %54
  br label %76

69:                                               ; preds = %54
  %70 = load i32, i32* %7, align 4
  %71 = add nsw i32 %70, 1
  store i32 %71, i32* %7, align 4
  br label %72

72:                                               ; preds = %69
  br label %73

73:                                               ; preds = %72
  %74 = load i32, i32* %10, align 4
  %75 = add nsw i32 %74, 1
  store i32 %75, i32* %10, align 4
  br label %50

76:                                               ; preds = %68, %50
  %77 = load i32, i32* %7, align 4
  %78 = load i32, i32* %6, align 4
  %79 = sub nsw i32 %78, 1
  %80 = icmp eq i32 %77, %79
  br i1 %80, label %81, label %103

81:                                               ; preds = %76
  %82 = load i32, i32* %9, align 4
  %83 = load i32, i32* %6, align 4
  %84 = add nsw i32 %82, %83
  %85 = load i32, i32* %5, align 4
  %86 = icmp eq i32 %84, %85
  br i1 %86, label %96, label %87

87:                                               ; preds = %81
  %88 = load i32, i32* %9, align 4
  %89 = load i32, i32* %6, align 4
  %90 = add nsw i32 %88, %89
  %91 = sext i32 %90 to i64
  %92 = getelementptr inbounds [100 x i8], [100 x i8]* %2, i64 0, i64 %91
  %93 = load i8, i8* %92, align 1
  %94 = sext i8 %93 to i32
  %95 = icmp eq i32 %94, 32
  br i1 %95, label %96, label %103

96:                                               ; preds = %87, %81
  %97 = getelementptr inbounds [100 x i8], [100 x i8]* %4, i64 0, i64 0
  %98 = call i32 (i8*, ...) @printf(i8* getelementptr inbounds ([3 x i8], [3 x i8]* @.str.1, i64 0, i64 0), i8* %97)
  %99 = load i32, i32* %6, align 4
  %100 = sub nsw i32 %99, 1
  %101 = load i32, i32* %9, align 4
  %102 = add nsw i32 %101, %100
  store i32 %102, i32* %9, align 4
  br label %110

103:                                              ; preds = %87, %76
  %104 = load i32, i32* %9, align 4
  %105 = sext i32 %104 to i64
  %106 = getelementptr inbounds [100 x i8], [100 x i8]* %2, i64 0, i64 %105
  %107 = load i8, i8* %106, align 1
  %108 = sext i8 %107 to i32
  %109 = call i32 (i8*, ...) @printf(i8* getelementptr inbounds ([3 x i8], [3 x i8]* @.str.2, i64 0, i64 0), i32 %108)
  br label %110

110:                                              ; preds = %103, %96
  br label %118

111:                                              ; preds = %40, %27
  %112 = load i32, i32* %9, align 4
  %113 = sext i32 %112 to i64
  %114 = getelementptr inbounds [100 x i8], [100 x i8]* %2, i64 0, i64 %113
  %115 = load i8, i8* %114, align 1
  %116 = sext i8 %115 to i32
  %117 = call i32 (i8*, ...) @printf(i8* getelementptr inbounds ([3 x i8], [3 x i8]* @.str.2, i64 0, i64 0), i32 %116)
  br label %118

118:                                              ; preds = %111, %110
  br label %119

119:                                              ; preds = %118
  %120 = load i32, i32* %9, align 4
  %121 = add nsw i32 %120, 1
  store i32 %121, i32* %9, align 4
  br label %23

122:                                              ; preds = %23
  ret i32 0
}

declare dso_local i32 @gets(...) #1

declare dso_local i32 @__isoc99_scanf(i8*, ...) #1

; Function Attrs: nounwind readonly
declare dso_local i64 @strlen(i8*) #2

declare dso_local i32 @printf(i8*, ...) #1


!llvm.module.flags = !{!0}
!llvm.ident = !{!1}

!0 = !{i32 1, !"wchar_size", i32 4}
!1 = !{!"clang version 10.0.0-4ubuntu1 "}
